Certificate:
    Data:
        Version: 3 (0x2)
        Serial Number: 4096 (0x1000)
    Signature Algorithm: md5WithRSAEncryption
        Issuer: C=US, ST=UT, L=SLC, O=UU, OU=MSD, CN=HZ
        Validity
            Not Before: Mar 29 18:32:11 2019 GMT
            Not After : Mar 28 18:32:11 2020 GMT
        Subject: C=US, ST=UT, O=UU, OU=MSD, CN=HZserver
        Subject Public Key Info:
            Public Key Algorithm: rsaEncryption
                Public-Key: (4096 bit)
                Modulus:
                    00:ef:a3:51:9c:50:e1:ce:54:78:1d:c3:85:d8:39:
                    8c:02:5b:52:ed:ad:63:b0:6a:84:a8:b4:e4:54:24:
                    4e:55:48:e4:1c:10:4c:8f:fc:6d:3b:5a:97:29:cf:
                    81:1a:c0:19:c3:c5:84:df:f6:9c:ce:b6:c0:82:2b:
                    3b:7e:55:8d:81:63:7c:b5:fd:b5:48:ce:8f:70:af:
                    18:0f:0b:fe:ce:93:47:d9:8f:fb:b0:88:3f:16:e3:
                    79:b6:01:2f:de:b0:25:53:08:00:c4:f4:61:e5:79:
                    5a:41:ec:96:6f:d7:39:a7:2a:97:e7:f6:50:4f:79:
                    76:13:41:db:e1:7b:f1:6d:c5:7b:37:ef:61:d6:f7:
                    1f:c1:77:e1:79:c6:65:58:1d:a4:56:0e:d7:f0:a7:
                    67:62:c6:89:44:ac:ca:43:c6:7b:dd:aa:f3:52:df:
                    fd:67:23:e7:c8:48:92:7c:e9:25:bc:2b:d6:a7:7c:
                    7c:4a:33:75:e9:a2:98:cf:2c:3c:80:ac:a1:21:6d:
                    76:89:78:eb:67:ce:d4:03:e1:a0:20:fd:22:6e:2b:
                    d4:15:1a:e8:0a:34:5f:3b:9a:5a:b3:05:70:08:e5:
                    86:d1:4b:65:28:bc:c2:e0:0c:53:29:57:70:ea:56:
                    84:fc:77:8e:5e:b9:5f:25:23:53:99:ac:1f:25:7a:
                    b2:e2:35:58:a6:8e:b9:dc:e1:24:99:28:8b:ca:5e:
                    9e:0e:15:59:82:0a:69:e5:e0:13:be:ea:6d:9b:dc:
                    da:ff:3f:54:f7:2d:ef:68:46:97:6e:88:73:e8:05:
                    05:be:c1:78:b3:ea:24:e5:86:ac:05:19:50:7a:d4:
                    43:d9:32:90:f3:5b:a8:8c:30:2a:53:74:ea:1f:00:
                    37:f6:6a:95:20:e9:08:47:25:6e:e1:94:2c:9b:7e:
                    0d:e9:46:ef:22:88:3d:ef:e8:34:e9:f2:09:2d:af:
                    c6:21:27:ac:cb:ea:22:c9:78:59:4a:89:65:a1:6f:
                    a0:1d:fa:f5:69:32:43:fa:0a:d3:5b:b2:f0:2a:df:
                    ed:11:f1:c9:fb:44:a5:7f:27:41:08:96:af:23:4a:
                    10:9f:eb:4f:eb:66:66:75:63:75:75:e2:1d:e2:8f:
                    ce:62:79:16:6e:c6:97:25:ad:84:6b:2b:42:72:ed:
                    07:4a:93:b5:59:38:7d:a4:56:e8:86:6d:bf:f2:15:
                    aa:f8:0e:f8:28:f5:0a:b0:e8:07:98:87:e2:98:53:
                    14:54:8a:e8:87:84:cc:97:a2:20:7e:d0:12:f8:08:
                    d0:13:33:ae:bc:07:99:0a:12:5b:a2:f6:7c:82:a5:
                    ea:c1:81:b1:c2:ab:83:b4:d9:2a:00:a7:e0:be:47:
                    5d:5a:f3
                Exponent: 65537 (0x10001)
        X509v3 extensions:
            X509v3 Basic Constraints: 
                CA:FALSE
            Netscape Comment: 
                OpenSSL Generated Certificate
            X509v3 Subject Key Identifier: 
                4D:85:80:9F:F2:48:BD:14:82:46:1B:0F:EA:A1:7F:DA:EF:E7:56:44
            X509v3 Authority Key Identifier: 
                DirName:/C=US/ST=UT/L=SLC/O=UU/OU=MSD/CN=HZ
                serial:94:C4:58:4E:5E:EC:E5:B8

    Signature Algorithm: md5WithRSAEncryption
         50:ed:8a:e9:8b:b7:bd:7d:6f:9a:95:2b:f3:45:71:9e:4a:0d:
         6e:bd:ce:4a:62:e0:ef:42:e9:96:18:68:c5:f6:3c:f2:ac:b3:
         c2:65:a3:af:eb:2d:42:e4:22:4f:da:0f:7e:fe:30:c4:c0:3e:
         12:45:0c:61:7a:db:6f:37:d2:3c:bb:84:ed:c2:ff:0b:ac:11:
         d2:c2:29:c6:23:a3:b7:0a:1f:91:f3:ed:b1:6c:d7:31:7c:9e:
         84:f6:ff:28:68:74:47:33:7c:51:cc:8c:88:d6:71:bc:49:fd:
         28:b4:89:2a:3b:c2:0a:76:1c:9c:61:ff:53:8c:b7:60:d7:fe:
         8a:8c:4e:b0:bf:9e:24:e6:5c:c7:41:88:ac:be:5e:d5:7f:a2:
         bf:86:ac:3e:12:c4:0b:fd:92:f5:1c:0e:26:80:f2:69:65:bb:
         a4:08:c8:7b:08:37:c4:c0:84:fc:94:21:7c:41:d5:27:57:d9:
         05:11:ef:b7:c3:2f:25:29:2c:db:84:cc:19:63:a7:2f:c0:c4:
         10:f3:db:68:fd:45:82:99:2a:46:f7:3b:cb:45:14:45:fa:4f:
         15:8c:5b:ce:0b:e4:57:5f:04:af:c6:b4:fe:4f:d7:62:ec:3b:
         9e:0b:5a:1b:b2:44:7c:e2:a0:64:ef:f3:5b:12:5c:a5:f0:58:
         21:6f:98:49:89:99:e7:72:6d:dc:6f:b4:48:1c:5b:eb:ee:d2:
         ce:5b:c1:24:58:51:de:36:5c:31:f3:cf:0a:74:10:20:3d:fc:
         d0:d9:45:59:36:ba:77:d2:65:91:65:7b:a0:86:70:c9:67:f7:
         16:1b:59:0d:d0:c6:70:6e:02:11:db:9d:52:06:f4:b9:ef:ee:
         d7:b3:c3:55:6e:22:2a:bd:e4:c0:35:3d:b4:cd:7b:32:7e:61:
         32:62:98:80:fb:ce:60:28:18:fd:0e:3f:7f:0e:f2:1b:b0:3f:
         55:f7:0c:a6:ed:75:43:b4:8c:b3:8b:af:07:28:7f:8f:97:43:
         f7:d1:3f:a7:53:dc:09:6d:de:74:31:10:65:25:85:c2:59:aa:
         54:90:28:ca:c0:53:57:9a:7d:ca:13:f2:10:9e:ed:f3:de:dd:
         22:84:5c:a2:0b:38:fe:c8:8f:51:2c:10:b9:5a:04:b8:a2:5e:
         d7:99:c6:8c:95:c5:37:09:5d:3b:4a:07:8a:98:d8:f0:d4:3c:
         f2:65:25:4a:92:8b:70:58:fb:1c:b7:5b:e2:8e:eb:5e:5e:01:
         f3:d2:26:9f:26:f6:22:08:d4:21:20:f8:8a:a0:c6:74:46:5b:
         c3:b5:5f:d5:00:ee:74:f2:90:04:c6:32:20:a4:84:14:e9:5a:
         16:7f:c8:84:f1:22:7d:d6
-----BEGIN CERTIFICATE-----
MIIF3DCCA8SgAwIBAgICEAAwDQYJKoZIhvcNAQEEBQAwUDELMAkGA1UEBhMCVVMx
CzAJBgNVBAgMAlVUMQwwCgYDVQQHDANTTEMxCzAJBgNVBAoMAlVVMQwwCgYDVQQL
DANNU0QxCzAJBgNVBAMMAkhaMB4XDTE5MDMyOTE4MzIxMVoXDTIwMDMyODE4MzIx
MVowSDELMAkGA1UEBhMCVVMxCzAJBgNVBAgMAlVUMQswCQYDVQQKDAJVVTEMMAoG
A1UECwwDTVNEMREwDwYDVQQDDAhIWnNlcnZlcjCCAiIwDQYJKoZIhvcNAQEBBQAD
ggIPADCCAgoCggIBAO+jUZxQ4c5UeB3Dhdg5jAJbUu2tY7BqhKi05FQkTlVI5BwQ
TI/8bTtalynPgRrAGcPFhN/2nM62wIIrO35VjYFjfLX9tUjOj3CvGA8L/s6TR9mP
+7CIPxbjebYBL96wJVMIAMT0YeV5WkHslm/XOacql+f2UE95dhNB2+F78W3Fezfv
Ydb3H8F34XnGZVgdpFYO1/CnZ2LGiUSsykPGe92q81Lf/Wcj58hIknzpJbwr1qd8
fEozdemimM8sPICsoSFtdol462fO1APhoCD9Im4r1BUa6Ao0XzuaWrMFcAjlhtFL
ZSi8wuAMUylXcOpWhPx3jl65XyUjU5msHyV6suI1WKaOudzhJJkoi8peng4VWYIK
aeXgE77qbZvc2v8/VPct72hGl26Ic+gFBb7BeLPqJOWGrAUZUHrUQ9kykPNbqIww
KlN06h8AN/ZqlSDpCEclbuGULJt+DelG7yKIPe/oNOnyCS2vxiEnrMvqIsl4WUqJ
ZaFvoB369WkyQ/oK01uy8Crf7RHxyftEpX8nQQiWryNKEJ/rT+tmZnVjdXXiHeKP
zmJ5Fm7GlyWthGsrQnLtB0qTtVk4faRW6IZtv/IVqvgO+Cj1CrDoB5iH4phTFFSK
6IeEzJeiIH7QEvgI0BMzrrwHmQoSW6L2fIKl6sGBscKrg7TZKgCn4L5HXVrzAgMB
AAGjgccwgcQwCQYDVR0TBAIwADAsBglghkgBhvhCAQ0EHxYdT3BlblNTTCBHZW5l
cmF0ZWQgQ2VydGlmaWNhdGUwHQYDVR0OBBYEFE2FgJ/ySL0UgkYbD+qhf9rv51ZE
MGoGA1UdIwRjMGGhVKRSMFAxCzAJBgNVBAYTAlVTMQswCQYDVQQIDAJVVDEMMAoG
A1UEBwwDU0xDMQswCQYDVQQKDAJVVTEMMAoGA1UECwwDTVNEMQswCQYDVQQDDAJI
WoIJAJTEWE5e7OW4MA0GCSqGSIb3DQEBBAUAA4ICAQBQ7Yrpi7e9fW+alSvzRXGe
Sg1uvc5KYuDvQumWGGjF9jzyrLPCZaOv6y1C5CJP2g9+/jDEwD4SRQxhettvN9I8
u4Ttwv8LrBHSwinGI6O3Ch+R8+2xbNcxfJ6E9v8oaHRHM3xRzIyI1nG8Sf0otIkq
O8IKdhycYf9TjLdg1/6KjE6wv54k5lzHQYisvl7Vf6K/hqw+EsQL/ZL1HA4mgPJp
ZbukCMh7CDfEwIT8lCF8QdUnV9kFEe+3wy8lKSzbhMwZY6cvwMQQ89to/UWCmSpG
9zvLRRRF+k8VjFvOC+RXXwSvxrT+T9di7DueC1obskR84qBk7/NbElyl8Fghb5hJ
iZnncm3cb7RIHFvr7tLOW8EkWFHeNlwx888KdBAgPfzQ2UVZNrp30mWRZXughnDJ
Z/cWG1kN0MZwbgIR251SBvS57+7Xs8NVbiIqveTANT20zXsyfmEyYpiA+85gKBj9
Dj9/DvIbsD9V9wym7XVDtIyzi68HKH+Pl0P30T+nU9wJbd50MRBlJYXCWapUkCjK
wFNXmn3KE/IQnu3z3t0ihFyiCzj+yI9RLBC5WgS4ol7XmcaMlcU3CV07SgeKmNjw
1DzyZSVKkotwWPsct1vijuteXgHz0iafJvYiCNQhIPiKoMZ0RlvDtV/VAO508pAE
xjIgpIQU6VoWf8iE8SJ91g==
-----END CERTIFICATE-----
