Certificate:
    Data:
        Version: 3 (0x2)
        Serial Number: 4097 (0x1001)
    Signature Algorithm: md5WithRSAEncryption
        Issuer: C=US, ST=UT, L=SLC, O=UU, OU=MSD, CN=HZ
        Validity
            Not Before: Mar 29 18:32:37 2019 GMT
            Not After : Mar 28 18:32:37 2020 GMT
        Subject: C=US, ST=UT, O=UU, OU=MSD, CN=HZclient
        Subject Public Key Info:
            Public Key Algorithm: rsaEncryption
                Public-Key: (4096 bit)
                Modulus:
                    00:e1:1d:ac:15:a0:4c:d5:e2:ab:0f:fc:6a:60:fd:
                    a2:2d:7c:be:96:ae:1a:da:16:f2:41:80:1a:b0:a3:
                    f6:0d:95:e7:4d:13:0e:37:9d:3e:74:94:3a:b1:db:
                    ca:d5:64:2e:c3:31:6a:b8:1f:2a:62:81:20:dd:a8:
                    c6:94:ec:d1:34:20:a0:f5:64:88:ad:21:8c:d6:b8:
                    af:a7:d1:da:17:1e:e1:90:2c:06:42:29:2e:ec:8c:
                    ac:89:a7:f8:6d:73:c1:19:30:c0:66:12:b5:5f:4b:
                    f8:43:5c:cc:4b:63:04:17:48:0b:4f:20:d4:ee:3f:
                    80:56:36:6c:b5:20:15:e3:73:96:d9:37:16:91:2d:
                    16:cb:47:e2:82:ac:7f:af:a4:aa:c3:5c:ae:c6:e6:
                    b7:b1:66:af:1e:97:c7:f2:31:7a:90:fc:4a:11:29:
                    d2:b3:98:75:1b:9b:4e:79:e9:7e:bf:c6:d8:19:9b:
                    b4:a2:d4:0b:c7:5f:69:01:c4:f3:b5:25:05:5c:02:
                    5d:93:59:6d:27:d1:31:38:75:81:07:58:94:54:19:
                    31:ba:b4:bd:77:72:50:e6:a0:5a:1b:3e:a5:b1:ab:
                    68:1d:58:9d:fb:96:0e:f4:e0:dc:7c:1a:08:e5:77:
                    e9:95:2b:57:63:d9:1e:0b:7b:cb:66:af:f5:51:3c:
                    fe:ca:df:7f:d9:74:ed:28:eb:a1:cc:8e:a7:25:b9:
                    24:d0:a6:93:9d:83:9c:62:4c:90:5e:7e:07:2d:10:
                    03:43:15:98:84:75:91:05:bf:09:83:50:37:89:8f:
                    79:92:ef:7d:6d:31:8c:d5:15:6f:53:f1:74:42:6b:
                    8b:f4:4d:b0:b5:e3:27:c3:c7:d6:3c:fa:80:fd:e8:
                    63:7c:fb:19:b0:14:5f:4c:f7:64:79:49:35:fd:2b:
                    ae:a8:e8:35:92:ea:dc:cb:9f:a9:fe:49:44:5f:56:
                    b8:18:3a:e2:7c:7e:26:d0:80:20:58:ce:e0:0b:8b:
                    8e:05:5d:33:3b:16:72:f2:45:70:3a:de:a5:96:a8:
                    39:38:71:90:28:f1:22:af:d3:55:b0:b2:f7:81:ef:
                    32:51:1c:ef:0f:6c:f1:bf:5c:ba:84:56:f9:3e:53:
                    2a:9a:69:a8:00:84:f7:90:dc:e8:8e:7c:bb:72:ad:
                    cf:55:e0:44:d7:ad:8a:b8:00:5b:7d:fd:bd:80:dd:
                    3a:fd:38:a9:f9:03:46:59:37:32:f6:0d:9e:83:6a:
                    3c:40:35:d0:9a:2d:7d:b3:db:29:95:83:6e:6c:ea:
                    c1:da:95:ab:b2:c4:c6:c6:29:ba:18:ca:4e:3f:b0:
                    68:d9:a2:21:ea:5d:63:dd:83:85:b2:4b:75:44:65:
                    03:83:5b
                Exponent: 65537 (0x10001)
        X509v3 extensions:
            X509v3 Basic Constraints: 
                CA:FALSE
            Netscape Comment: 
                OpenSSL Generated Certificate
            X509v3 Subject Key Identifier: 
                78:B2:AC:BE:6A:A6:D1:9E:CA:A2:7D:AF:1C:5B:E2:48:26:24:A9:86
            X509v3 Authority Key Identifier: 
                DirName:/C=US/ST=UT/L=SLC/O=UU/OU=MSD/CN=HZ
                serial:94:C4:58:4E:5E:EC:E5:B8

    Signature Algorithm: md5WithRSAEncryption
         88:2d:3a:d9:6f:b8:8b:43:ed:51:06:23:f7:d0:fd:99:0d:24:
         ba:bf:6b:67:45:db:74:ff:33:39:64:6f:f5:9d:23:a9:c6:1f:
         92:2e:a1:22:b2:80:da:89:4b:5b:f3:74:10:b5:51:f6:9e:c1:
         2a:ba:9d:e6:e8:80:3b:cf:40:68:94:9a:85:0b:42:68:d0:d7:
         43:5a:c2:47:b6:4b:b4:53:06:6b:77:63:0e:5c:d6:87:26:21:
         da:e5:96:41:9f:c4:be:11:be:26:48:90:d2:43:5a:a8:b5:2d:
         72:8a:88:77:f2:2b:c9:9d:af:aa:88:fc:78:a3:0d:2b:3b:29:
         db:54:df:26:d9:41:ad:08:87:57:8e:3f:91:ea:45:df:e7:d3:
         af:0d:f5:bc:35:c7:c5:72:7e:60:24:a7:f1:31:df:9a:65:0f:
         74:42:a8:85:3a:5a:54:d0:89:02:2f:af:64:3c:4b:5b:80:e8:
         76:82:b1:0f:06:6e:bb:9f:c5:3f:c7:27:99:a1:c4:18:7b:7e:
         79:d4:74:aa:fc:35:fa:27:5f:6b:89:b3:92:5c:3b:81:7c:1b:
         9d:d7:9a:80:bd:4b:a9:e1:75:c7:3c:68:23:9b:6d:58:a3:fb:
         69:65:3a:fc:31:4b:05:02:a1:cd:d7:f8:da:1e:af:c4:50:f0:
         0f:5b:3f:c0:9c:b9:c3:9f:80:26:f6:c7:00:27:c5:fd:56:ff:
         62:c2:c6:f5:92:cd:cf:05:c9:67:f6:e0:1c:68:04:3f:8e:8a:
         35:6f:ec:9a:28:6c:28:38:a4:91:77:e5:3c:d3:30:12:fd:de:
         1c:df:ee:dc:24:04:32:5a:1f:b8:08:be:8b:7e:43:c8:34:93:
         dd:8d:0e:3d:7f:d9:2e:7d:a2:99:e1:6b:7c:c7:79:c0:f9:66:
         73:27:65:7a:72:5e:1f:90:26:39:3f:49:11:74:2e:fc:42:de:
         02:40:27:9c:e0:4f:cb:1a:eb:4c:4a:03:fa:a9:5c:9d:9e:f5:
         0f:7f:e0:0b:9b:54:0b:25:e5:ad:1a:97:6d:a3:ca:52:9f:f5:
         fb:07:86:b0:9d:30:65:e6:4d:93:af:4f:27:28:ef:fd:ee:c3:
         cc:1c:f1:9f:d8:69:e1:ac:fc:de:8e:0b:e8:21:21:fd:6b:33:
         4b:89:ba:20:21:eb:f8:67:5a:dd:3b:53:7d:8e:c1:70:58:05:
         a6:6f:dc:d7:62:78:1b:c9:c7:fc:76:3b:35:32:5f:68:86:a7:
         54:15:bd:da:9e:19:f2:00:bf:4a:da:f4:f5:02:4c:d0:07:62:
         52:ae:81:ef:3a:e2:c2:9b:1e:a0:4c:b1:9a:7f:66:d3:77:fc:
         ee:0d:1e:54:b0:10:02:c7
-----BEGIN CERTIFICATE-----
MIIF3DCCA8SgAwIBAgICEAEwDQYJKoZIhvcNAQEEBQAwUDELMAkGA1UEBhMCVVMx
CzAJBgNVBAgMAlVUMQwwCgYDVQQHDANTTEMxCzAJBgNVBAoMAlVVMQwwCgYDVQQL
DANNU0QxCzAJBgNVBAMMAkhaMB4XDTE5MDMyOTE4MzIzN1oXDTIwMDMyODE4MzIz
N1owSDELMAkGA1UEBhMCVVMxCzAJBgNVBAgMAlVUMQswCQYDVQQKDAJVVTEMMAoG
A1UECwwDTVNEMREwDwYDVQQDDAhIWmNsaWVudDCCAiIwDQYJKoZIhvcNAQEBBQAD
ggIPADCCAgoCggIBAOEdrBWgTNXiqw/8amD9oi18vpauGtoW8kGAGrCj9g2V500T
DjedPnSUOrHbytVkLsMxargfKmKBIN2oxpTs0TQgoPVkiK0hjNa4r6fR2hce4ZAs
BkIpLuyMrImn+G1zwRkwwGYStV9L+ENczEtjBBdIC08g1O4/gFY2bLUgFeNzltk3
FpEtFstH4oKsf6+kqsNcrsbmt7Fmrx6Xx/IxepD8ShEp0rOYdRubTnnpfr/G2Bmb
tKLUC8dfaQHE87UlBVwCXZNZbSfRMTh1gQdYlFQZMbq0vXdyUOagWhs+pbGraB1Y
nfuWDvTg3HwaCOV36ZUrV2PZHgt7y2av9VE8/srff9l07SjrocyOpyW5JNCmk52D
nGJMkF5+By0QA0MVmIR1kQW/CYNQN4mPeZLvfW0xjNUVb1PxdEJri/RNsLXjJ8PH
1jz6gP3oY3z7GbAUX0z3ZHlJNf0rrqjoNZLq3Mufqf5JRF9WuBg64nx+JtCAIFjO
4AuLjgVdMzsWcvJFcDrepZaoOThxkCjxIq/TVbCy94HvMlEc7w9s8b9cuoRW+T5T
KpppqACE95Dc6I58u3Ktz1XgRNetirgAW339vYDdOv04qfkDRlk3MvYNnoNqPEA1
0JotfbPbKZWDbmzqwdqVq7LExsYpuhjKTj+waNmiIepdY92DhbJLdURlA4NbAgMB
AAGjgccwgcQwCQYDVR0TBAIwADAsBglghkgBhvhCAQ0EHxYdT3BlblNTTCBHZW5l
cmF0ZWQgQ2VydGlmaWNhdGUwHQYDVR0OBBYEFHiyrL5qptGeyqJ9rxxb4kgmJKmG
MGoGA1UdIwRjMGGhVKRSMFAxCzAJBgNVBAYTAlVTMQswCQYDVQQIDAJVVDEMMAoG
A1UEBwwDU0xDMQswCQYDVQQKDAJVVTEMMAoGA1UECwwDTVNEMQswCQYDVQQDDAJI
WoIJAJTEWE5e7OW4MA0GCSqGSIb3DQEBBAUAA4ICAQCILTrZb7iLQ+1RBiP30P2Z
DSS6v2tnRdt0/zM5ZG/1nSOpxh+SLqEisoDaiUtb83QQtVH2nsEqup3m6IA7z0Bo
lJqFC0Jo0NdDWsJHtku0UwZrd2MOXNaHJiHa5ZZBn8S+Eb4mSJDSQ1qotS1yioh3
8ivJna+qiPx4ow0rOynbVN8m2UGtCIdXjj+R6kXf59OvDfW8NcfFcn5gJKfxMd+a
ZQ90QqiFOlpU0IkCL69kPEtbgOh2grEPBm67n8U/xyeZocQYe3551HSq/DX6J19r
ibOSXDuBfBud15qAvUup4XXHPGgjm21Yo/tpZTr8MUsFAqHN1/jaHq/EUPAPWz/A
nLnDn4Am9scAJ8X9Vv9iwsb1ks3PBcln9uAcaAQ/joo1b+yaKGwoOKSRd+U80zAS
/d4c3+7cJAQyWh+4CL6LfkPINJPdjQ49f9kufaKZ4Wt8x3nA+WZzJ2V6cl4fkCY5
P0kRdC78Qt4CQCec4E/LGutMSgP6qVydnvUPf+ALm1QLJeWtGpdto8pSn/X7B4aw
nTBl5k2Tr08nKO/97sPMHPGf2GnhrPzejgvoISH9azNLibogIev4Z1rdO1N9jsFw
WAWmb9zXYngbycf8djs1Ml9ohqdUFb3anhnyAL9K2vT1AkzQB2JSroHvOuLCmx6g
TLGaf2bTd/zuDR5UsBACxw==
-----END CERTIFICATE-----
